; ModuleID = 'source-C-CXX/57/991.c'
source_filename = "source-C-CXX/57/991.c"
target datalayout = "e-m:e-p270:32:32-p271:32:32-p272:64:64-i64:64-f80:128-n8:16:32:64-S128"
target triple = "x86_64-pc-linux-gnu"

@.str = private unnamed_addr constant [3 x i8] c"%d\00", align 1
@.str.1 = private unnamed_addr constant [5 x i8] c"%d%s\00", align 1
@.str.2 = private unnamed_addr constant [1 x i8] zeroinitializer, align 1
@.str.3 = private unnamed_addr constant [2 x i8] c"\0A\00", align 1

; Function Attrs: nounwind sspstrong uwtable
define dso_local void @main() local_unnamed_addr #0 {
  %1 = alloca i32, align 4
  %2 = bitcast i32* %1 to i8*
  call void @llvm.lifetime.start.p0i8(i64 4, i8* nonnull %2) #5
  %3 = tail call noalias align 16 dereferenceable_or_null(10000) i8* @malloc(i64 10000) #5
  %4 = call i32 (i8*, ...) @__isoc99_scanf(i8* getelementptr inbounds ([3 x i8], [3 x i8]* @.str, i64 0, i64 0), i32* nonnull %1)
  %5 = call i32 (i8*, ...) bitcast (i32 (...)* @gets to i32 (i8*, ...)*)(i8* %3) #5
  %6 = load i32, i32* %1, align 4, !tbaa !5
  %7 = icmp sgt i32 %6, 0
  br i1 %7, label %8, label %49

8:                                                ; preds = %0, %39
  %9 = phi i32 [ %46, %39 ], [ 0, %0 ]
  %10 = call i32 (i8*, ...) bitcast (i32 (...)* @gets to i32 (i8*, ...)*)(i8* %3) #5
  %11 = load i8, i8* %3, align 16, !tbaa !9
  %12 = icmp eq i8 %11, 0
  br i1 %12, label %39, label %13

13:                                               ; preds = %8, %34
  %14 = phi i64 [ %35, %34 ], [ 0, %8 ]
  %15 = phi i8 [ %37, %34 ], [ %11, %8 ]
  %16 = icmp eq i64 %14, 0
  %17 = add i8 %15, -97
  %18 = icmp ugt i8 %17, 25
  br i1 %16, label %19, label %25

19:                                               ; preds = %13
  br i1 %18, label %20, label %34

20:                                               ; preds = %19
  %21 = add i8 %15, -65
  %22 = icmp ult i8 %21, 26
  %23 = icmp eq i8 %15, 95
  %24 = or i1 %23, %22
  br i1 %24, label %34, label %39

25:                                               ; preds = %13
  br i1 %18, label %26, label %34

26:                                               ; preds = %25
  %27 = add i8 %15, -65
  %28 = icmp ugt i8 %27, 25
  %29 = icmp ne i8 %15, 95
  %30 = and i1 %29, %28
  %31 = add i8 %15, -48
  %32 = icmp ugt i8 %31, 9
  %33 = and i1 %30, %32
  br i1 %33, label %39, label %34

34:                                               ; preds = %19, %20, %26, %25
  %35 = add nuw i64 %14, 1
  %36 = getelementptr inbounds i8, i8* %3, i64 %35
  %37 = load i8, i8* %36, align 1, !tbaa !9
  %38 = icmp eq i8 %37, 0
  br i1 %38, label %39, label %13, !llvm.loop !10

39:                                               ; preds = %34, %20, %26, %8
  %40 = phi i32 [ 1, %8 ], [ 0, %26 ], [ 0, %20 ], [ 1, %34 ]
  %41 = load i32, i32* %1, align 4, !tbaa !5
  %42 = add nsw i32 %41, -1
  %43 = icmp eq i32 %9, %42
  %44 = select i1 %43, i8* getelementptr inbounds ([1 x i8], [1 x i8]* @.str.2, i64 0, i64 0), i8* getelementptr inbounds ([2 x i8], [2 x i8]* @.str.3, i64 0, i64 0)
  %45 = call i32 (i8*, ...) @printf(i8* nonnull dereferenceable(1) getelementptr inbounds ([5 x i8], [5 x i8]* @.str.1, i64 0, i64 0), i32 %40, i8* %44)
  %46 = add nuw nsw i32 %9, 1
  %47 = load i32, i32* %1, align 4, !tbaa !5
  %48 = icmp slt i32 %46, %47
  br i1 %48, label %8, label %49, !llvm.loop !12

49:                                               ; preds = %39, %0
  call void @llvm.lifetime.end.p0i8(i64 4, i8* nonnull %2) #5
  ret void
}

; Function Attrs: argmemonly mustprogress nofree nosync nounwind willreturn
declare void @llvm.lifetime.start.p0i8(i64 immarg, i8* nocapture) #1

; Function Attrs: inaccessiblememonly mustprogress nofree nounwind willreturn
declare noalias noundef align 16 i8* @malloc(i64 noundef) local_unnamed_addr #2

; Function Attrs: nofree nounwind
declare noundef i32 @__isoc99_scanf(i8* nocapture noundef readonly, ...) local_unnamed_addr #3

declare i32 @gets(...) local_unnamed_addr #4

; Function Attrs: nofree nounwind
declare noundef i32 @printf(i8* nocapture noundef readonly, ...) local_unnamed_addr #3

; Function Attrs: argmemonly mustprogress nofree nosync nounwind willreturn
declare void @llvm.lifetime.end.p0i8(i64 immarg, i8* nocapture) #1


!llvm.module.flags = !{!0, !1, !2, !3}
!llvm.ident = !{!4}

!0 = !{i32 1, !"wchar_size", i32 4}
!1 = !{i32 7, !"PIC Level", i32 2}
!2 = !{i32 7, !"PIE Level", i32 2}
!3 = !{i32 7, !"uwtable", i32 1}
!4 = !{!"clang version 13.0.0"}
!5 = !{!6, !6, i64 0}
!6 = !{!"int", !7, i64 0}
!7 = !{!"omnipotent char", !8, i64 0}
!8 = !{!"Simple C/C++ TBAA"}
!9 = !{!7, !7, i64 0}
!10 = distinct !{!10, !11}
!11 = !{!"llvm.loop.mustprogress"}
!12 = distinct !{!12, !11}
